TN:
SF:/home/ubuntu/markov-algorithm/include/Markov.h
FNF:0
FNH:0
LF:0
LH:0
end_of_record
TN:
SF:/home/ubuntu/markov-algorithm/include/Rule.h
FNF:0
FNH:0
LF:0
LH:0
end_of_record
TN:
SF:/home/ubuntu/markov-algorithm/src/Markov.cpp
FN:103,112,_ZN6Markov22applyFirstMatchingRuleEv
FN:13,13,_ZN6MarkovC2Ev
FN:15,17,_ZN6MarkovC2ERKNSt7__cxx1112basic_stringIcSt11char_traitsIcESaIcEEE
FN:19,28,_ZN6Markov7executeEb
FN:30,38,_ZN6Markov21addTransformationRuleERKNSt7__cxx1112basic_stringIcSt11char_traitsIcESaIcEEES7_
FN:40,49,_ZN6Markov24removeTransformationRuleERKNSt7__cxx1112basic_stringIcSt11char_traitsIcESaIcEEES7_
FN:51,57,_ZN6Markov12modifyRuleAtEmRKNSt7__cxx1112basic_stringIcSt11char_traitsIcESaIcEEES7_
FN:59,83,_ZN6Markov17loadRulesFromFileERKNSt7__cxx1112basic_stringIcSt11char_traitsIcESaIcEEE
FN:6,11,_ZL4trimRKNSt7__cxx1112basic_stringIcSt11char_traitsIcESaIcEEE
FN:85,89,_ZNK6Markov12displayRulesEv
FN:91,93,_ZNK6Markov16getCurrentStringB5cxx11Ev
FN:95,97,_ZN6Markov14setStartStringERKNSt7__cxx1112basic_stringIcSt11char_traitsIcESaIcEEE
FN:99,101,_ZN6Markov15applySingleStepEv
FNDA:22,_ZN6Markov22applyFirstMatchingRuleEv
FNDA:15,_ZN6MarkovC2Ev
FNDA:3,_ZN6MarkovC2ERKNSt7__cxx1112basic_stringIcSt11char_traitsIcESaIcEEE
FNDA:5,_ZN6Markov7executeEb
FNDA:13,_ZN6Markov21addTransformationRuleERKNSt7__cxx1112basic_stringIcSt11char_traitsIcESaIcEEES7_
FNDA:2,_ZN6Markov24removeTransformationRuleERKNSt7__cxx1112basic_stringIcSt11char_traitsIcESaIcEEES7_
FNDA:4,_ZN6Markov12modifyRuleAtEmRKNSt7__cxx1112basic_stringIcSt11char_traitsIcESaIcEEES7_
FNDA:3,_ZN6Markov17loadRulesFromFileERKNSt7__cxx1112basic_stringIcSt11char_traitsIcESaIcEEE
FNDA:15,_ZL4trimRKNSt7__cxx1112basic_stringIcSt11char_traitsIcESaIcEEE
FNDA:1,_ZNK6Markov12displayRulesEv
FNDA:15,_ZNK6Markov16getCurrentStringB5cxx11Ev
FNDA:11,_ZN6Markov14setStartStringERKNSt7__cxx1112basic_stringIcSt11char_traitsIcESaIcEEE
FNDA:7,_ZN6Markov15applySingleStepEv
FNF:13
FNH:13
DA:6,15
DA:7,15
DA:8,17
DA:9,14
DA:10,14
DA:13,45
DA:15,3
DA:16,3
DA:17,3
DA:19,5
DA:20,5
DA:21,5
DA:22,15
DA:23,10
DA:24,10
DA:25,3
DA:28,5
DA:30,13
DA:31,13
DA:32,15
DA:33,3
DA:34,1
DA:37,12
DA:38,13
DA:40,2
DA:41,2
DA:42,2
DA:43,1
DA:44,1
DA:45,1
DA:48,1
DA:49,2
DA:51,4
DA:52,4
DA:53,3
DA:55,1
DA:56,1
DA:59,3
DA:60,3
DA:61,3
DA:62,1
DA:65,2
DA:66,2
DA:67,2
DA:70,7
DA:71,5
DA:72,5
DA:74,4
DA:75,4
DA:77,4
DA:78,4
DA:80,4
DA:81,4
DA:82,2
DA:83,3
DA:85,1
DA:86,3
DA:87,2
DA:89,1
DA:91,15
DA:92,15
DA:95,11
DA:96,11
DA:97,11
DA:99,7
DA:100,7
DA:103,22
DA:104,32
DA:105,24
DA:106,24
DA:107,14
DA:108,14
DA:111,8
LF:73
LH:73
end_of_record
TN:
SF:/home/ubuntu/markov-algorithm/tests/markov_algorithm_tests.cpp
FN:100,100,_ZN39MarkovTest_ApplySingleStep_NoMatch_Test8TestBodyEv
FN:100,100,_ZN39MarkovTest_ApplySingleStep_NoMatch_TestC2Ev
FN:100,100,_ZN39MarkovTest_ApplySingleStep_NoMatch_TestD0Ev
FN:100,100,_ZN39MarkovTest_ApplySingleStep_NoMatch_TestD2Ev
FN:108,108,_ZN44MarkovTest_Execute_FullAlgorithm_Simple_Test8TestBodyEv
FN:108,108,_ZN44MarkovTest_Execute_FullAlgorithm_Simple_TestC2Ev
FN:108,108,_ZN44MarkovTest_Execute_FullAlgorithm_Simple_TestD0Ev
FN:108,108,_ZN44MarkovTest_Execute_FullAlgorithm_Simple_TestD2Ev
FN:116,121,_ZN31MarkovTest_Execute_NoRules_Test8TestBodyEv
FN:116,121,_ZN31MarkovTest_Execute_NoRules_TestC2Ev
FN:116,121,_ZN31MarkovTest_Execute_NoRules_TestD0Ev
FN:116,121,_ZN31MarkovTest_Execute_NoRules_TestD2Ev
FN:123,129,_ZN47MarkovTest_Execute_WithLoggingDoesNotCrash_Test8TestBodyEv
FN:123,129,_ZN47MarkovTest_Execute_WithLoggingDoesNotCrash_TestC2Ev
FN:123,129,_ZN47MarkovTest_Execute_WithLoggingDoesNotCrash_TestD0Ev
FN:123,129,_ZN47MarkovTest_Execute_WithLoggingDoesNotCrash_TestD2Ev
FN:13,13,_ZN38RuleTest_ParameterizedConstructor_Test8TestBodyEv
FN:13,13,_ZN38RuleTest_ParameterizedConstructor_TestC2Ev
FN:13,13,_ZN38RuleTest_ParameterizedConstructor_TestD0Ev
FN:13,13,_ZN38RuleTest_ParameterizedConstructor_TestD2Ev
FN:131,146,_ZN43MarkovTest_LoadRulesFromFile_ValidFile_Test8TestBodyEv
FN:131,146,_ZN43MarkovTest_LoadRulesFromFile_ValidFile_TestC2Ev
FN:131,146,_ZN43MarkovTest_LoadRulesFromFile_ValidFile_TestD0Ev
FN:131,146,_ZN43MarkovTest_LoadRulesFromFile_ValidFile_TestD2Ev
FN:148,151,_ZN46MarkovTest_LoadRulesFromFile_FileNotFound_Test8TestBodyEv
FN:148,151,_ZN46MarkovTest_LoadRulesFromFile_FileNotFound_TestC2Ev
FN:148,151,_ZN46MarkovTest_LoadRulesFromFile_FileNotFound_TestD0Ev
FN:148,151,_ZN46MarkovTest_LoadRulesFromFile_FileNotFound_TestD2Ev
FN:152,152,_ZN53MarkovTest_LoadRulesFromFile_EmptyLinesAndSpaces_Test8TestBodyEv
FN:152,152,_ZN53MarkovTest_LoadRulesFromFile_EmptyLinesAndSpaces_TestC2Ev
FN:152,152,_ZN53MarkovTest_LoadRulesFromFile_EmptyLinesAndSpaces_TestD0Ev
FN:152,152,_ZN53MarkovTest_LoadRulesFromFile_EmptyLinesAndSpaces_TestD2Ev
FN:169,169,_ZN43MarkovTest_DisplayRules_CapturesOutput_Test8TestBodyEv
FN:169,169,_ZN43MarkovTest_DisplayRules_CapturesOutput_TestC2Ev
FN:169,169,_ZN43MarkovTest_DisplayRules_CapturesOutput_TestD0Ev
FN:169,169,_ZN43MarkovTest_DisplayRules_CapturesOutput_TestD2Ev
FN:182,189,_ZN56MarkovTest_ApplyFirstMatchingRule_StopsAtFirstMatch_Test8TestBodyEv
FN:182,189,_ZN56MarkovTest_ApplyFirstMatchingRule_StopsAtFirstMatch_TestC2Ev
FN:182,189,_ZN56MarkovTest_ApplyFirstMatchingRule_StopsAtFirstMatch_TestD0Ev
FN:182,189,_ZN56MarkovTest_ApplyFirstMatchingRule_StopsAtFirstMatch_TestD2Ev
FN:19,19,_ZN36RuleTest_EqualityOperator_Equal_Test8TestBodyEv
FN:19,19,_ZN36RuleTest_EqualityOperator_Equal_TestC2Ev
FN:19,19,_ZN36RuleTest_EqualityOperator_Equal_TestD0Ev
FN:19,19,_ZN36RuleTest_EqualityOperator_Equal_TestD2Ev
FN:25,25,_ZN47RuleTest_EqualityOperator_NotEqual_Pattern_Test8TestBodyEv
FN:25,25,_ZN47RuleTest_EqualityOperator_NotEqual_Pattern_TestC2Ev
FN:25,25,_ZN47RuleTest_EqualityOperator_NotEqual_Pattern_TestD0Ev
FN:25,25,_ZN47RuleTest_EqualityOperator_NotEqual_Pattern_TestD2Ev
FN:31,31,_ZN46RuleTest_EqualityOperator_NotEqual_Result_Test8TestBodyEv
FN:31,31,_ZN46RuleTest_EqualityOperator_NotEqual_Result_TestC2Ev
FN:31,31,_ZN46RuleTest_EqualityOperator_NotEqual_Result_TestD0Ev
FN:31,31,_ZN46RuleTest_EqualityOperator_NotEqual_Result_TestD2Ev
FN:37,40,_ZN34MarkovTest_DefaultConstructor_Test8TestBodyEv
FN:37,40,_ZN34MarkovTest_DefaultConstructor_TestC2Ev
FN:37,40,_ZN34MarkovTest_DefaultConstructor_TestD0Ev
FN:37,40,_ZN34MarkovTest_DefaultConstructor_TestD2Ev
FN:42,42,_ZN36MarkovTest_SetAndGetStartString_Test8TestBodyEv
FN:42,42,_ZN36MarkovTest_SetAndGetStartString_TestC2Ev
FN:42,42,_ZN36MarkovTest_SetAndGetStartString_TestD0Ev
FN:42,42,_ZN36MarkovTest_SetAndGetStartString_TestD2Ev
FN:48,48,_ZN44MarkovTest_AddTransformationRule_Single_Test8TestBodyEv
FN:48,48,_ZN44MarkovTest_AddTransformationRule_Single_TestC2Ev
FN:48,48,_ZN44MarkovTest_AddTransformationRule_Single_TestD0Ev
FN:48,48,_ZN44MarkovTest_AddTransformationRule_Single_TestD2Ev
FN:56,56,_ZN54MarkovTest_AddTransformationRule_DuplicateIgnored_Test8TestBodyEv
FN:56,56,_ZN54MarkovTest_AddTransformationRule_DuplicateIgnored_TestC2Ev
FN:56,56,_ZN54MarkovTest_AddTransformationRule_DuplicateIgnored_TestD0Ev
FN:56,56,_ZN54MarkovTest_AddTransformationRule_DuplicateIgnored_TestD2Ev
FN:66,66,_ZN49MarkovTest_RemoveTransformationRule_Existing_Test8TestBodyEv
FN:66,66,_ZN49MarkovTest_RemoveTransformationRule_Existing_TestC2Ev
FN:66,66,_ZN49MarkovTest_RemoveTransformationRule_Existing_TestD0Ev
FN:66,66,_ZN49MarkovTest_RemoveTransformationRule_Existing_TestD2Ev
FN:7,7,_ZN32RuleTest_DefaultConstructor_Test8TestBodyEv
FN:7,7,_ZN32RuleTest_DefaultConstructor_TestC2Ev
FN:7,7,_ZN32RuleTest_DefaultConstructor_TestD0Ev
FN:7,7,_ZN32RuleTest_DefaultConstructor_TestD2Ev
FN:74,74,_ZN52MarkovTest_RemoveTransformationRule_NonExisting_Test8TestBodyEv
FN:74,74,_ZN52MarkovTest_RemoveTransformationRule_NonExisting_TestC2Ev
FN:74,74,_ZN52MarkovTest_RemoveTransformationRule_NonExisting_TestD0Ev
FN:74,74,_ZN52MarkovTest_RemoveTransformationRule_NonExisting_TestD2Ev
FN:79,79,_ZN39MarkovTest_ModifyRuleAt_ValidIndex_Test8TestBodyEv
FN:79,79,_ZN39MarkovTest_ModifyRuleAt_ValidIndex_TestC2Ev
FN:79,79,_ZN39MarkovTest_ModifyRuleAt_ValidIndex_TestD0Ev
FN:79,79,_ZN39MarkovTest_ModifyRuleAt_ValidIndex_TestD2Ev
FN:88,88,_ZN39MarkovTest_ModifyRuleAt_EmptyRules_Test8TestBodyEv
FN:88,88,_ZN39MarkovTest_ModifyRuleAt_EmptyRules_TestC2Ev
FN:88,88,_ZN39MarkovTest_ModifyRuleAt_EmptyRules_TestD0Ev
FN:88,88,_ZN39MarkovTest_ModifyRuleAt_EmptyRules_TestD2Ev
FN:93,93,_ZN44MarkovTest_ModifyRuleAt_IndexOutOfRange_Test8TestBodyEv
FN:93,93,_ZN44MarkovTest_ModifyRuleAt_IndexOutOfRange_TestC2Ev
FN:93,93,_ZN44MarkovTest_ModifyRuleAt_IndexOutOfRange_TestD0Ev
FN:93,93,_ZN44MarkovTest_ModifyRuleAt_IndexOutOfRange_TestD2Ev
FNDA:1,_ZN39MarkovTest_ApplySingleStep_NoMatch_Test8TestBodyEv
FNDA:1,_ZN39MarkovTest_ApplySingleStep_NoMatch_TestC2Ev
FNDA:1,_ZN39MarkovTest_ApplySingleStep_NoMatch_TestD0Ev
FNDA:1,_ZN39MarkovTest_ApplySingleStep_NoMatch_TestD2Ev
FNDA:1,_ZN44MarkovTest_Execute_FullAlgorithm_Simple_Test8TestBodyEv
FNDA:1,_ZN44MarkovTest_Execute_FullAlgorithm_Simple_TestC2Ev
FNDA:1,_ZN44MarkovTest_Execute_FullAlgorithm_Simple_TestD0Ev
FNDA:1,_ZN44MarkovTest_Execute_FullAlgorithm_Simple_TestD2Ev
FNDA:1,_ZN31MarkovTest_Execute_NoRules_Test8TestBodyEv
FNDA:1,_ZN31MarkovTest_Execute_NoRules_TestC2Ev
FNDA:1,_ZN31MarkovTest_Execute_NoRules_TestD0Ev
FNDA:1,_ZN31MarkovTest_Execute_NoRules_TestD2Ev
FNDA:1,_ZN47MarkovTest_Execute_WithLoggingDoesNotCrash_Test8TestBodyEv
FNDA:1,_ZN47MarkovTest_Execute_WithLoggingDoesNotCrash_TestC2Ev
FNDA:1,_ZN47MarkovTest_Execute_WithLoggingDoesNotCrash_TestD0Ev
FNDA:1,_ZN47MarkovTest_Execute_WithLoggingDoesNotCrash_TestD2Ev
FNDA:1,_ZN38RuleTest_ParameterizedConstructor_Test8TestBodyEv
FNDA:1,_ZN38RuleTest_ParameterizedConstructor_TestC2Ev
FNDA:1,_ZN38RuleTest_ParameterizedConstructor_TestD0Ev
FNDA:1,_ZN38RuleTest_ParameterizedConstructor_TestD2Ev
FNDA:1,_ZN43MarkovTest_LoadRulesFromFile_ValidFile_Test8TestBodyEv
FNDA:1,_ZN43MarkovTest_LoadRulesFromFile_ValidFile_TestC2Ev
FNDA:1,_ZN43MarkovTest_LoadRulesFromFile_ValidFile_TestD0Ev
FNDA:1,_ZN43MarkovTest_LoadRulesFromFile_ValidFile_TestD2Ev
FNDA:1,_ZN46MarkovTest_LoadRulesFromFile_FileNotFound_Test8TestBodyEv
FNDA:1,_ZN46MarkovTest_LoadRulesFromFile_FileNotFound_TestC2Ev
FNDA:1,_ZN46MarkovTest_LoadRulesFromFile_FileNotFound_TestD0Ev
FNDA:1,_ZN46MarkovTest_LoadRulesFromFile_FileNotFound_TestD2Ev
FNDA:1,_ZN53MarkovTest_LoadRulesFromFile_EmptyLinesAndSpaces_Test8TestBodyEv
FNDA:1,_ZN53MarkovTest_LoadRulesFromFile_EmptyLinesAndSpaces_TestC2Ev
FNDA:1,_ZN53MarkovTest_LoadRulesFromFile_EmptyLinesAndSpaces_TestD0Ev
FNDA:1,_ZN53MarkovTest_LoadRulesFromFile_EmptyLinesAndSpaces_TestD2Ev
FNDA:1,_ZN43MarkovTest_DisplayRules_CapturesOutput_Test8TestBodyEv
FNDA:1,_ZN43MarkovTest_DisplayRules_CapturesOutput_TestC2Ev
FNDA:1,_ZN43MarkovTest_DisplayRules_CapturesOutput_TestD0Ev
FNDA:1,_ZN43MarkovTest_DisplayRules_CapturesOutput_TestD2Ev
FNDA:1,_ZN56MarkovTest_ApplyFirstMatchingRule_StopsAtFirstMatch_Test8TestBodyEv
FNDA:1,_ZN56MarkovTest_ApplyFirstMatchingRule_StopsAtFirstMatch_TestC2Ev
FNDA:1,_ZN56MarkovTest_ApplyFirstMatchingRule_StopsAtFirstMatch_TestD0Ev
FNDA:1,_ZN56MarkovTest_ApplyFirstMatchingRule_StopsAtFirstMatch_TestD2Ev
FNDA:1,_ZN36RuleTest_EqualityOperator_Equal_Test8TestBodyEv
FNDA:1,_ZN36RuleTest_EqualityOperator_Equal_TestC2Ev
FNDA:1,_ZN36RuleTest_EqualityOperator_Equal_TestD0Ev
FNDA:1,_ZN36RuleTest_EqualityOperator_Equal_TestD2Ev
FNDA:1,_ZN47RuleTest_EqualityOperator_NotEqual_Pattern_Test8TestBodyEv
FNDA:1,_ZN47RuleTest_EqualityOperator_NotEqual_Pattern_TestC2Ev
FNDA:1,_ZN47RuleTest_EqualityOperator_NotEqual_Pattern_TestD0Ev
FNDA:1,_ZN47RuleTest_EqualityOperator_NotEqual_Pattern_TestD2Ev
FNDA:1,_ZN46RuleTest_EqualityOperator_NotEqual_Result_Test8TestBodyEv
FNDA:1,_ZN46RuleTest_EqualityOperator_NotEqual_Result_TestC2Ev
FNDA:1,_ZN46RuleTest_EqualityOperator_NotEqual_Result_TestD0Ev
FNDA:1,_ZN46RuleTest_EqualityOperator_NotEqual_Result_TestD2Ev
FNDA:1,_ZN34MarkovTest_DefaultConstructor_Test8TestBodyEv
FNDA:1,_ZN34MarkovTest_DefaultConstructor_TestC2Ev
FNDA:1,_ZN34MarkovTest_DefaultConstructor_TestD0Ev
FNDA:1,_ZN34MarkovTest_DefaultConstructor_TestD2Ev
FNDA:1,_ZN36MarkovTest_SetAndGetStartString_Test8TestBodyEv
FNDA:1,_ZN36MarkovTest_SetAndGetStartString_TestC2Ev
FNDA:1,_ZN36MarkovTest_SetAndGetStartString_TestD0Ev
FNDA:1,_ZN36MarkovTest_SetAndGetStartString_TestD2Ev
FNDA:1,_ZN44MarkovTest_AddTransformationRule_Single_Test8TestBodyEv
FNDA:1,_ZN44MarkovTest_AddTransformationRule_Single_TestC2Ev
FNDA:1,_ZN44MarkovTest_AddTransformationRule_Single_TestD0Ev
FNDA:1,_ZN44MarkovTest_AddTransformationRule_Single_TestD2Ev
FNDA:1,_ZN54MarkovTest_AddTransformationRule_DuplicateIgnored_Test8TestBodyEv
FNDA:1,_ZN54MarkovTest_AddTransformationRule_DuplicateIgnored_TestC2Ev
FNDA:1,_ZN54MarkovTest_AddTransformationRule_DuplicateIgnored_TestD0Ev
FNDA:1,_ZN54MarkovTest_AddTransformationRule_DuplicateIgnored_TestD2Ev
FNDA:1,_ZN49MarkovTest_RemoveTransformationRule_Existing_Test8TestBodyEv
FNDA:1,_ZN49MarkovTest_RemoveTransformationRule_Existing_TestC2Ev
FNDA:1,_ZN49MarkovTest_RemoveTransformationRule_Existing_TestD0Ev
FNDA:1,_ZN49MarkovTest_RemoveTransformationRule_Existing_TestD2Ev
FNDA:1,_ZN32RuleTest_DefaultConstructor_Test8TestBodyEv
FNDA:1,_ZN32RuleTest_DefaultConstructor_TestC2Ev
FNDA:1,_ZN32RuleTest_DefaultConstructor_TestD0Ev
FNDA:1,_ZN32RuleTest_DefaultConstructor_TestD2Ev
FNDA:1,_ZN52MarkovTest_RemoveTransformationRule_NonExisting_Test8TestBodyEv
FNDA:1,_ZN52MarkovTest_RemoveTransformationRule_NonExisting_TestC2Ev
FNDA:1,_ZN52MarkovTest_RemoveTransformationRule_NonExisting_TestD0Ev
FNDA:1,_ZN52MarkovTest_RemoveTransformationRule_NonExisting_TestD2Ev
FNDA:1,_ZN39MarkovTest_ModifyRuleAt_ValidIndex_Test8TestBodyEv
FNDA:1,_ZN39MarkovTest_ModifyRuleAt_ValidIndex_TestC2Ev
FNDA:1,_ZN39MarkovTest_ModifyRuleAt_ValidIndex_TestD0Ev
FNDA:1,_ZN39MarkovTest_ModifyRuleAt_ValidIndex_TestD2Ev
FNDA:1,_ZN39MarkovTest_ModifyRuleAt_EmptyRules_Test8TestBodyEv
FNDA:1,_ZN39MarkovTest_ModifyRuleAt_EmptyRules_TestC2Ev
FNDA:1,_ZN39MarkovTest_ModifyRuleAt_EmptyRules_TestD0Ev
FNDA:1,_ZN39MarkovTest_ModifyRuleAt_EmptyRules_TestD2Ev
FNDA:1,_ZN44MarkovTest_ModifyRuleAt_IndexOutOfRange_Test8TestBodyEv
FNDA:1,_ZN44MarkovTest_ModifyRuleAt_IndexOutOfRange_TestC2Ev
FNDA:1,_ZN44MarkovTest_ModifyRuleAt_IndexOutOfRange_TestD0Ev
FNDA:1,_ZN44MarkovTest_ModifyRuleAt_IndexOutOfRange_TestD2Ev
FNF:92
FNH:92
DA:7,4
DA:8,1
DA:9,1
DA:10,1
DA:11,1
DA:13,4
DA:14,3
DA:15,1
DA:16,1
DA:17,1
DA:19,4
DA:20,4
DA:21,3
DA:22,1
DA:23,1
DA:25,4
DA:26,4
DA:27,3
DA:28,1
DA:29,1
DA:31,4
DA:32,4
DA:33,3
DA:34,1
DA:35,1
DA:37,4
DA:38,1
DA:39,1
DA:40,1
DA:42,4
DA:43,1
DA:44,1
DA:45,1
DA:46,1
DA:48,4
DA:49,1
DA:50,4
DA:51,1
DA:52,1
DA:53,1
DA:54,1
DA:56,4
DA:57,1
DA:58,4
DA:59,4
DA:60,1
DA:61,1
DA:62,1
DA:63,1
DA:64,1
DA:66,4
DA:67,1
DA:68,4
DA:69,4
DA:70,1
DA:71,1
DA:72,1
DA:74,4
DA:75,1
DA:76,5
DA:77,1
DA:79,4
DA:80,1
DA:81,4
DA:82,4
DA:83,1
DA:84,1
DA:85,1
DA:86,1
DA:88,4
DA:89,1
DA:90,5
DA:91,1
DA:93,4
DA:94,1
DA:95,4
DA:96,4
DA:97,4
DA:98,1
DA:100,4
DA:101,1
DA:102,4
DA:103,1
DA:104,1
DA:105,1
DA:106,1
DA:108,4
DA:109,1
DA:110,4
DA:111,1
DA:112,1
DA:113,1
DA:114,1
DA:116,4
DA:117,1
DA:118,1
DA:119,1
DA:120,1
DA:121,1
DA:123,4
DA:124,1
DA:125,4
DA:126,1
DA:127,1
DA:128,1
DA:129,1
DA:131,4
DA:132,1
DA:133,1
DA:134,1
DA:135,1
DA:136,1
DA:137,1
DA:139,1
DA:140,1
DA:141,1
DA:142,1
DA:143,1
DA:145,1
DA:146,1
DA:148,4
DA:149,1
DA:150,1
DA:151,1
DA:152,4
DA:153,1
DA:154,1
DA:155,1
DA:156,1
DA:157,1
DA:158,1
DA:159,1
DA:161,1
DA:162,1
DA:163,1
DA:164,1
DA:166,1
DA:167,1
DA:169,4
DA:170,1
DA:171,4
DA:172,3
DA:174,1
DA:175,1
DA:176,1
DA:178,1
DA:179,1
DA:180,1
DA:182,4
DA:183,1
DA:184,4
DA:185,4
DA:186,1
DA:187,1
DA:188,1
DA:189,1
LF:156
LH:156
end_of_record
