TN:
SF:/home/ubuntu/markov-algorithm/src/Markov.cpp
FN:103,112,_ZN6Markov22applyFirstMatchingRuleEv
FN:13,13,_ZN6MarkovC2Ev
FN:15,17,_ZN6MarkovC2ERKNSt7__cxx1112basic_stringIcSt11char_traitsIcESaIcEEE
FN:19,28,_ZN6Markov7executeEb
FN:30,38,_ZN6Markov21addTransformationRuleERKNSt7__cxx1112basic_stringIcSt11char_traitsIcESaIcEEES7_
FN:40,49,_ZN6Markov24removeTransformationRuleERKNSt7__cxx1112basic_stringIcSt11char_traitsIcESaIcEEES7_
FN:51,57,_ZN6Markov12modifyRuleAtEmRKNSt7__cxx1112basic_stringIcSt11char_traitsIcESaIcEEES7_
FN:59,83,_ZN6Markov17loadRulesFromFileERKNSt7__cxx1112basic_stringIcSt11char_traitsIcESaIcEEE
FN:6,11,_ZL4trimRKNSt7__cxx1112basic_stringIcSt11char_traitsIcESaIcEEE
FN:85,89,_ZNK6Markov12displayRulesEv
FN:91,93,_ZNK6Markov16getCurrentStringB5cxx11Ev
FN:95,97,_ZN6Markov14setStartStringERKNSt7__cxx1112basic_stringIcSt11char_traitsIcESaIcEEE
FN:99,101,_ZN6Markov15applySingleStepEv
FNDA:22,_ZN6Markov22applyFirstMatchingRuleEv
FNDA:15,_ZN6MarkovC2Ev
FNDA:3,_ZN6MarkovC2ERKNSt7__cxx1112basic_stringIcSt11char_traitsIcESaIcEEE
FNDA:5,_ZN6Markov7executeEb
FNDA:13,_ZN6Markov21addTransformationRuleERKNSt7__cxx1112basic_stringIcSt11char_traitsIcESaIcEEES7_
FNDA:2,_ZN6Markov24removeTransformationRuleERKNSt7__cxx1112basic_stringIcSt11char_traitsIcESaIcEEES7_
FNDA:4,_ZN6Markov12modifyRuleAtEmRKNSt7__cxx1112basic_stringIcSt11char_traitsIcESaIcEEES7_
FNDA:3,_ZN6Markov17loadRulesFromFileERKNSt7__cxx1112basic_stringIcSt11char_traitsIcESaIcEEE
FNDA:15,_ZL4trimRKNSt7__cxx1112basic_stringIcSt11char_traitsIcESaIcEEE
FNDA:1,_ZNK6Markov12displayRulesEv
FNDA:15,_ZNK6Markov16getCurrentStringB5cxx11Ev
FNDA:11,_ZN6Markov14setStartStringERKNSt7__cxx1112basic_stringIcSt11char_traitsIcESaIcEEE
FNDA:7,_ZN6Markov15applySingleStepEv
FNF:13
FNH:13
DA:6,15
DA:7,15
DA:8,17
DA:9,14
DA:10,14
DA:13,45
DA:15,3
DA:16,3
DA:17,3
DA:19,5
DA:20,5
DA:21,5
DA:22,15
DA:23,10
DA:24,10
DA:25,3
DA:28,5
DA:30,13
DA:31,13
DA:32,15
DA:33,3
DA:34,1
DA:37,12
DA:38,13
DA:40,2
DA:41,2
DA:42,2
DA:43,1
DA:44,1
DA:45,1
DA:48,1
DA:49,2
DA:51,4
DA:52,4
DA:53,3
DA:55,1
DA:56,1
DA:59,3
DA:60,3
DA:61,3
DA:62,1
DA:65,2
DA:66,2
DA:67,2
DA:70,7
DA:71,5
DA:72,5
DA:74,4
DA:75,4
DA:77,4
DA:78,4
DA:80,4
DA:81,4
DA:82,2
DA:83,3
DA:85,1
DA:86,3
DA:87,2
DA:89,1
DA:91,15
DA:92,15
DA:95,11
DA:96,11
DA:97,11
DA:99,7
DA:100,7
DA:103,22
DA:104,32
DA:105,24
DA:106,24
DA:107,14
DA:108,14
DA:111,8
LF:73
LH:73
end_of_record
